; Function Attrs: mustprogress uwtable
define void @_ZN6LibRaw10nikon_3700Ev(ptr noundef nonnull align 8 dereferenceable(767680) %0) local_unnamed_addr #0 align 2 {
  %2 = alloca [24 x i8], align 16
  call void @llvm.lifetime.start.p0(i64 24, ptr nonnull %2) #13
  %3 = getelementptr inbounds nuw i8, ptr %0, i64 381416
  %4 = load ptr, ptr %3, align 8, !tbaa !6
  %5 = load ptr, ptr %4, align 8, !tbaa !71
  %6 = getelementptr inbounds nuw i8, ptr %5, i64 32
  %7 = load ptr, ptr %6, align 8
  %8 = tail call noundef i32 %7(ptr noundef nonnull align 8 dereferenceable(8) %4, i64 noundef 3072, i32 noundef 0)
  %9 = load ptr, ptr %3, align 8, !tbaa !6
  %10 = load ptr, ptr %9, align 8, !tbaa !71
  %11 = getelementptr inbounds nuw i8, ptr %10, i64 24
  %12 = load ptr, ptr %11, align 8
  %13 = call noundef i32 %12(ptr noundef nonnull align 8 dereferenceable(8) %9, ptr noundef nonnull %2, i64 noundef 1, i64 noundef 24)
  %14 = getelementptr inbounds nuw i8, ptr %2, i64 8
  %15 = load i8, ptr %14, align 8, !tbaa !75
  %16 = shl i8 %15, 4
  %17 = and i8 %16, 48
  %18 = getelementptr inbounds nuw i8, ptr %2, i64 20
  %19 = load i8, ptr %18, align 4, !tbaa !75
  %20 = and i8 %19, 3
  %21 = or disjoint i8 %17, %20
  %22 = zext nneg i8 %21 to i32
  %23 = getelementptr inbounds nuw i8, ptr %0, i64 204
  %24 = getelementptr inbounds nuw i8, ptr %0, i64 524
  %25 = getelementptr inbounds nuw i8, ptr %0, i64 268
  br label %26

26:                                               ; preds = %1, %37
  %indvars.iv = phi i64 [ 0, %1 ], [ %indvars.iv.next, %37 ]
  %27 = getelementptr inbounds nuw [4 x %struct.anon], ptr @_ZZN6LibRaw10nikon_3700EvE5table, i64 0, i64 %indvars.iv
  %28 = load i32, ptr %27, align 4, !tbaa !76
  %29 = icmp eq i32 %28, %22
  br i1 %29, label %30, label %37

30:                                               ; preds = %26
  %31 = getelementptr inbounds nuw i8, ptr %27, i64 4
  %32 = call ptr @strcpy(ptr noundef nonnull dereferenceable(1) %23, ptr noundef nonnull dereferenceable(1) %31) #13
  %33 = getelementptr inbounds nuw i8, ptr %27, i64 32
  %34 = load i32, ptr %33, align 4, !tbaa !78
  store i32 %34, ptr %24, align 4, !tbaa !79
  %35 = getelementptr inbounds nuw i8, ptr %27, i64 16
  %36 = call ptr @strcpy(ptr noundef nonnull dereferenceable(1) %25, ptr noundef nonnull dereferenceable(1) %35) #13
  br label %37

37:                                               ; preds = %26, %30
  %indvars.iv.next = add nuw nsw i64 %indvars.iv, 1
  %exitcond.not = icmp eq i64 %indvars.iv.next, 4
  br i1 %exitcond.not, label %38, label %26, !llvm.loop !80

38:                                               ; preds = %37
  call void @llvm.lifetime.end.p0(i64 24, ptr nonnull %2) #13
  ret void
}